target datalayout = "e-m:e-p270:32:32-p271:32:32-p272:64:64-i64:64-i128:128-f80:128-n8:16:32:64-S128"
target triple = "x86_64-pc-linux-gnu"

%struct.WebPMux = type { ptr, ptr, ptr, ptr, ptr, ptr, ptr, i32, i32 }
%struct.WebPData = type { ptr, i64 }
%struct.WebPChunk = type { i32, i32, %struct.WebPData, ptr }

; Function Attrs: nounwind uwtable
define internal i32 @MuxSet(ptr noundef %0, i32 noundef %1, ptr noundef %2, i32 noundef %3) #0 {
  %5 = alloca i32, align 4
  %6 = alloca ptr, align 8
  %7 = alloca i32, align 4
  %8 = alloca ptr, align 8
  %9 = alloca i32, align 4
  %10 = alloca %struct.WebPChunk, align 8
  %11 = alloca i32, align 4
  %12 = alloca i32, align 4
  %13 = alloca i32, align 4
  store ptr %0, ptr %6, align 8, !tbaa !7
  store i32 %1, ptr %7, align 4, !tbaa !3
  store ptr %2, ptr %8, align 8, !tbaa !17
  store i32 %3, ptr %9, align 4, !tbaa !3
  call void @llvm.lifetime.start.p0(i64 32, ptr %10) #7
  call void @llvm.lifetime.start.p0(i64 4, ptr %11) #7
  store i32 0, ptr %11, align 4, !tbaa !3
  call void @llvm.lifetime.start.p0(i64 4, ptr %12) #7
  %14 = load i32, ptr %7, align 4, !tbaa !3
  %15 = call i32 @ChunkGetIndexFromTag(i32 noundef %14)
  store i32 %15, ptr %12, align 4, !tbaa !3
  call void @ChunkInit(ptr noundef %10)
  br label %16

16:                                               ; preds = %4
  %17 = load i32, ptr %12, align 4, !tbaa !3
  %18 = icmp eq i32 %17, 0
  br i1 %18, label %19, label %37

19:                                               ; preds = %16
  %20 = load ptr, ptr %8, align 8, !tbaa !17
  %21 = load i32, ptr %9, align 4, !tbaa !3
  %22 = load i32, ptr %7, align 4, !tbaa !3
  %23 = call i32 @ChunkAssignData(ptr noundef %10, ptr noundef %20, i32 noundef %21, i32 noundef %22)
  store i32 %23, ptr %11, align 4, !tbaa !3
  %24 = load i32, ptr %11, align 4, !tbaa !3
  %25 = icmp eq i32 %24, 1
  br i1 %25, label %26, label %35

26:                                               ; preds = %19
  %27 = load ptr, ptr %6, align 8, !tbaa !7
  %28 = getelementptr inbounds nuw %struct.WebPMux, ptr %27, i32 0, i32 5
  %29 = call i32 @ChunkSetHead(ptr noundef %10, ptr noundef %28)
  store i32 %29, ptr %11, align 4, !tbaa !3
  %30 = load i32, ptr %11, align 4, !tbaa !3
  %31 = icmp ne i32 %30, 1
  br i1 %31, label %32, label %34

32:                                               ; preds = %26
  %33 = call ptr @ChunkRelease(ptr noundef %10)
  br label %34

34:                                               ; preds = %32, %26
  br label %35

35:                                               ; preds = %34, %19
  %36 = load i32, ptr %11, align 4, !tbaa !3
  store i32 %36, ptr %5, align 4
  store i32 1, ptr %13, align 4
  br label %161

37:                                               ; preds = %16
  br label %38

38:                                               ; preds = %37
  br label %39

39:                                               ; preds = %38
  br label %40

40:                                               ; preds = %39
  %41 = load i32, ptr %12, align 4, !tbaa !3
  %42 = icmp eq i32 %41, 1
  br i1 %42, label %43, label %61

43:                                               ; preds = %40
  %44 = load ptr, ptr %8, align 8, !tbaa !17
  %45 = load i32, ptr %9, align 4, !tbaa !3
  %46 = load i32, ptr %7, align 4, !tbaa !3
  %47 = call i32 @ChunkAssignData(ptr noundef %10, ptr noundef %44, i32 noundef %45, i32 noundef %46)
  store i32 %47, ptr %11, align 4, !tbaa !3
  %48 = load i32, ptr %11, align 4, !tbaa !3
  %49 = icmp eq i32 %48, 1
  br i1 %49, label %50, label %59

50:                                               ; preds = %43
  %51 = load ptr, ptr %6, align 8, !tbaa !7
  %52 = getelementptr inbounds nuw %struct.WebPMux, ptr %51, i32 0, i32 1
  %53 = call i32 @ChunkSetHead(ptr noundef %10, ptr noundef %52)
  store i32 %53, ptr %11, align 4, !tbaa !3
  %54 = load i32, ptr %11, align 4, !tbaa !3
  %55 = icmp ne i32 %54, 1
  br i1 %55, label %56, label %58

56:                                               ; preds = %50
  %57 = call ptr @ChunkRelease(ptr noundef %10)
  br label %58

58:                                               ; preds = %56, %50
  br label %59

59:                                               ; preds = %58, %43
  %60 = load i32, ptr %11, align 4, !tbaa !3
  store i32 %60, ptr %5, align 4
  store i32 1, ptr %13, align 4
  br label %161

61:                                               ; preds = %40
  br label %62

62:                                               ; preds = %61
  br label %63

63:                                               ; preds = %62
  br label %64

64:                                               ; preds = %63
  %65 = load i32, ptr %12, align 4, !tbaa !3
  %66 = icmp eq i32 %65, 2
  br i1 %66, label %67, label %85

67:                                               ; preds = %64
  %68 = load ptr, ptr %8, align 8, !tbaa !17
  %69 = load i32, ptr %9, align 4, !tbaa !3
  %70 = load i32, ptr %7, align 4, !tbaa !3
  %71 = call i32 @ChunkAssignData(ptr noundef %10, ptr noundef %68, i32 noundef %69, i32 noundef %70)
  store i32 %71, ptr %11, align 4, !tbaa !3
  %72 = load i32, ptr %11, align 4, !tbaa !3
  %73 = icmp eq i32 %72, 1
  br i1 %73, label %74, label %83

74:                                               ; preds = %67
  %75 = load ptr, ptr %6, align 8, !tbaa !7
  %76 = getelementptr inbounds nuw %struct.WebPMux, ptr %75, i32 0, i32 4
  %77 = call i32 @ChunkSetHead(ptr noundef %10, ptr noundef %76)
  store i32 %77, ptr %11, align 4, !tbaa !3
  %78 = load i32, ptr %11, align 4, !tbaa !3
  %79 = icmp ne i32 %78, 1
  br i1 %79, label %80, label %82

80:                                               ; preds = %74
  %81 = call ptr @ChunkRelease(ptr noundef %10)
  br label %82

82:                                               ; preds = %80, %74
  br label %83

83:                                               ; preds = %82, %67
  %84 = load i32, ptr %11, align 4, !tbaa !3
  store i32 %84, ptr %5, align 4
  store i32 1, ptr %13, align 4
  br label %161

85:                                               ; preds = %64
  br label %86

86:                                               ; preds = %85
  br label %87

87:                                               ; preds = %86
  br label %88

88:                                               ; preds = %87
  %89 = load i32, ptr %12, align 4, !tbaa !3
  %90 = icmp eq i32 %89, 7
  br i1 %90, label %91, label %109

91:                                               ; preds = %88
  %92 = load ptr, ptr %8, align 8, !tbaa !17
  %93 = load i32, ptr %9, align 4, !tbaa !3
  %94 = load i32, ptr %7, align 4, !tbaa !3
  %95 = call i32 @ChunkAssignData(ptr noundef %10, ptr noundef %92, i32 noundef %93, i32 noundef %94)
  store i32 %95, ptr %11, align 4, !tbaa !3
  %96 = load i32, ptr %11, align 4, !tbaa !3
  %97 = icmp eq i32 %96, 1
  br i1 %97, label %98, label %107

98:                                               ; preds = %91
  %99 = load ptr, ptr %6, align 8, !tbaa !7
  %100 = getelementptr inbounds nuw %struct.WebPMux, ptr %99, i32 0, i32 2
  %101 = call i32 @ChunkSetHead(ptr noundef %10, ptr noundef %100)
  store i32 %101, ptr %11, align 4, !tbaa !3
  %102 = load i32, ptr %11, align 4, !tbaa !3
  %103 = icmp ne i32 %102, 1
  br i1 %103, label %104, label %106

104:                                              ; preds = %98
  %105 = call ptr @ChunkRelease(ptr noundef %10)
  br label %106

106:                                              ; preds = %104, %98
  br label %107

107:                                              ; preds = %106, %91
  %108 = load i32, ptr %11, align 4, !tbaa !3
  store i32 %108, ptr %5, align 4
  store i32 1, ptr %13, align 4
  br label %161

109:                                              ; preds = %88
  br label %110

110:                                              ; preds = %109
  br label %111

111:                                              ; preds = %110
  br label %112

112:                                              ; preds = %111
  %113 = load i32, ptr %12, align 4, !tbaa !3
  %114 = icmp eq i32 %113, 8
  br i1 %114, label %115, label %133

115:                                              ; preds = %112
  %116 = load ptr, ptr %8, align 8, !tbaa !17
  %117 = load i32, ptr %9, align 4, !tbaa !3
  %118 = load i32, ptr %7, align 4, !tbaa !3
  %119 = call i32 @ChunkAssignData(ptr noundef %10, ptr noundef %116, i32 noundef %117, i32 noundef %118)
  store i32 %119, ptr %11, align 4, !tbaa !3
  %120 = load i32, ptr %11, align 4, !tbaa !3
  %121 = icmp eq i32 %120, 1
  br i1 %121, label %122, label %131

122:                                              ; preds = %115
  %123 = load ptr, ptr %6, align 8, !tbaa !7
  %124 = getelementptr inbounds nuw %struct.WebPMux, ptr %123, i32 0, i32 3
  %125 = call i32 @ChunkSetHead(ptr noundef %10, ptr noundef %124)
  store i32 %125, ptr %11, align 4, !tbaa !3
  %126 = load i32, ptr %11, align 4, !tbaa !3
  %127 = icmp ne i32 %126, 1
  br i1 %127, label %128, label %130

128:                                              ; preds = %122
  %129 = call ptr @ChunkRelease(ptr noundef %10)
  br label %130

130:                                              ; preds = %128, %122
  br label %131

131:                                              ; preds = %130, %115
  %132 = load i32, ptr %11, align 4, !tbaa !3
  store i32 %132, ptr %5, align 4
  store i32 1, ptr %13, align 4
  br label %161

133:                                              ; preds = %112
  br label %134

134:                                              ; preds = %133
  br label %135

135:                                              ; preds = %134
  br label %136

136:                                              ; preds = %135
  %137 = load i32, ptr %12, align 4, !tbaa !3
  %138 = icmp eq i32 %137, 9
  br i1 %138, label %139, label %157

139:                                              ; preds = %136
  %140 = load ptr, ptr %8, align 8, !tbaa !17
  %141 = load i32, ptr %9, align 4, !tbaa !3
  %142 = load i32, ptr %7, align 4, !tbaa !3
  %143 = call i32 @ChunkAssignData(ptr noundef %10, ptr noundef %140, i32 noundef %141, i32 noundef %142)
  store i32 %143, ptr %11, align 4, !tbaa !3
  %144 = load i32, ptr %11, align 4, !tbaa !3
  %145 = icmp eq i32 %144, 1
  br i1 %145, label %146, label %155

146:                                              ; preds = %139
  %147 = load ptr, ptr %6, align 8, !tbaa !7
  %148 = getelementptr inbounds nuw %struct.WebPMux, ptr %147, i32 0, i32 6
  %149 = call i32 @ChunkSetHead(ptr noundef %10, ptr noundef %148)
  store i32 %149, ptr %11, align 4, !tbaa !3
  %150 = load i32, ptr %11, align 4, !tbaa !3
  %151 = icmp ne i32 %150, 1
  br i1 %151, label %152, label %154

152:                                              ; preds = %146
  %153 = call ptr @ChunkRelease(ptr noundef %10)
  br label %154

154:                                              ; preds = %152, %146
  br label %155

155:                                              ; preds = %154, %139
  %156 = load i32, ptr %11, align 4, !tbaa !3
  store i32 %156, ptr %5, align 4
  store i32 1, ptr %13, align 4
  br label %161

157:                                              ; preds = %136
  br label %158

158:                                              ; preds = %157
  br label %159

159:                                              ; preds = %158
  %160 = load i32, ptr %11, align 4, !tbaa !3
  store i32 %160, ptr %5, align 4
  store i32 1, ptr %13, align 4
  br label %161

161:                                              ; preds = %159, %155, %131, %107, %83, %59, %35
  call void @llvm.lifetime.end.p0(i64 4, ptr %12) #7
  call void @llvm.lifetime.end.p0(i64 4, ptr %11) #7
  call void @llvm.lifetime.end.p0(i64 32, ptr %10) #7
  %162 = load i32, ptr %5, align 4
  ret i32 %162
}