; Function Attrs: nounwind uwtable
define internal fastcc i32 @MuxSet(ptr noundef nonnull %0, i32 noundef %1, ptr noundef nonnull %2, i32 noundef %3) unnamed_addr #0 {
  %5 = alloca %struct.WebPChunk, align 8
  call void @llvm.lifetime.start.p0(i64 32, ptr nonnull %5) #7
  %6 = tail call i32 @ChunkGetIndexFromTag(i32 noundef %1) #7
  call void @ChunkInit(ptr noundef nonnull %5) #7
  switch i32 %6, label %44 [
    i32 0, label %7
    i32 1, label %13
    i32 2, label %19
    i32 7, label %25
    i32 8, label %31
    i32 9, label %37
  ]

7:                                                ; preds = %4
  %8 = call i32 @ChunkAssignData(ptr noundef nonnull %5, ptr noundef nonnull %2, i32 noundef %3, i32 noundef %1) #7
  %9 = icmp eq i32 %8, 1
  br i1 %9, label %10, label %44

10:                                               ; preds = %7
  %11 = getelementptr inbounds nuw i8, ptr %0, i64 40
  %12 = call i32 @ChunkSetHead(ptr noundef nonnull %5, ptr noundef nonnull %11) #7
  %.not74 = icmp eq i32 %12, 1
  br i1 %.not74, label %44, label %.sink.split

13:                                               ; preds = %4
  %14 = call i32 @ChunkAssignData(ptr noundef nonnull %5, ptr noundef nonnull %2, i32 noundef %3, i32 noundef %1) #7
  %15 = icmp eq i32 %14, 1
  br i1 %15, label %16, label %44

16:                                               ; preds = %13
  %17 = getelementptr inbounds nuw i8, ptr %0, i64 8
  %18 = call i32 @ChunkSetHead(ptr noundef nonnull %5, ptr noundef nonnull %17) #7
  %.not73 = icmp eq i32 %18, 1
  br i1 %.not73, label %44, label %.sink.split

19:                                               ; preds = %4
  %20 = call i32 @ChunkAssignData(ptr noundef nonnull %5, ptr noundef nonnull %2, i32 noundef %3, i32 noundef %1) #7
  %21 = icmp eq i32 %20, 1
  br i1 %21, label %22, label %44

22:                                               ; preds = %19
  %23 = getelementptr inbounds nuw i8, ptr %0, i64 32
  %24 = call i32 @ChunkSetHead(ptr noundef nonnull %5, ptr noundef nonnull %23) #7
  %.not72 = icmp eq i32 %24, 1
  br i1 %.not72, label %44, label %.sink.split

25:                                               ; preds = %4
  %26 = call i32 @ChunkAssignData(ptr noundef nonnull %5, ptr noundef nonnull %2, i32 noundef %3, i32 noundef %1) #7
  %27 = icmp eq i32 %26, 1
  br i1 %27, label %28, label %44

28:                                               ; preds = %25
  %29 = getelementptr inbounds nuw i8, ptr %0, i64 16
  %30 = call i32 @ChunkSetHead(ptr noundef nonnull %5, ptr noundef nonnull %29) #7
  %.not71 = icmp eq i32 %30, 1
  br i1 %.not71, label %44, label %.sink.split

31:                                               ; preds = %4
  %32 = call i32 @ChunkAssignData(ptr noundef nonnull %5, ptr noundef nonnull %2, i32 noundef %3, i32 noundef %1) #7
  %33 = icmp eq i32 %32, 1
  br i1 %33, label %34, label %44

34:                                               ; preds = %31
  %35 = getelementptr inbounds nuw i8, ptr %0, i64 24
  %36 = call i32 @ChunkSetHead(ptr noundef nonnull %5, ptr noundef nonnull %35) #7
  %.not70 = icmp eq i32 %36, 1
  br i1 %.not70, label %44, label %.sink.split

37:                                               ; preds = %4
  %38 = call i32 @ChunkAssignData(ptr noundef nonnull %5, ptr noundef nonnull %2, i32 noundef %3, i32 noundef %1) #7
  %39 = icmp eq i32 %38, 1
  br i1 %39, label %40, label %44

40:                                               ; preds = %37
  %41 = getelementptr inbounds nuw i8, ptr %0, i64 48
  %42 = call i32 @ChunkSetHead(ptr noundef nonnull %5, ptr noundef nonnull %41) #7
  %.not = icmp eq i32 %42, 1
  br i1 %.not, label %44, label %.sink.split

.sink.split:                                      ; preds = %40, %34, %28, %22, %16, %10
  %.0.ph = phi i32 [ %12, %10 ], [ %18, %16 ], [ %24, %22 ], [ %30, %28 ], [ %36, %34 ], [ %42, %40 ]
  %43 = call ptr @ChunkRelease(ptr noundef nonnull %5) #7
  br label %44

44:                                               ; preds = %.sink.split, %4, %37, %40, %31, %34, %25, %28, %19, %22, %13, %16, %7, %10
  %.0 = phi i32 [ 1, %10 ], [ %8, %7 ], [ 1, %16 ], [ %14, %13 ], [ 1, %22 ], [ %20, %19 ], [ 1, %28 ], [ %26, %25 ], [ 1, %34 ], [ %32, %31 ], [ 1, %40 ], [ %38, %37 ], [ 0, %4 ], [ %.0.ph, %.sink.split ]
  call void @llvm.lifetime.end.p0(i64 32, ptr nonnull %5) #7
  ret i32 %.0
}